target datalayout = "e-m:e-p270:32:32-p271:32:32-p272:64:64-i64:64-i128:128-f80:128-n8:16:32:64-S128"
target triple = "x86_64-pc-linux-gnu"

@progname = internal global ptr null, align 8
@sig = internal global i32 2, align 4
@.str.89 = private unnamed_addr constant [4 x i8] c"HUP\00", align 1
@.str.90 = private unnamed_addr constant [4 x i8] c"INT\00", align 1
@.str.91 = private unnamed_addr constant [5 x i8] c"QUIT\00", align 1
@.str.92 = private unnamed_addr constant [5 x i8] c"ABRT\00", align 1
@.str.93 = private unnamed_addr constant [5 x i8] c"KILL\00", align 1
@.str.94 = private unnamed_addr constant [5 x i8] c"TERM\00", align 1
@.str.95 = private unnamed_addr constant [5 x i8] c"USR1\00", align 1
@.str.96 = private unnamed_addr constant [5 x i8] c"USR2\00", align 1
@.str.97 = private unnamed_addr constant [35 x i8] c"%s: unrecognized signal name \22%s\22\0A\00", align 1

; Function Attrs: nounwind uwtable
define internal void @set_sig(ptr noundef %0) #0 {
  %2 = alloca ptr, align 8
  store ptr %0, ptr %2, align 8
  %3 = load ptr, ptr %2, align 8
  %4 = call i32 @strcmp(ptr noundef %3, ptr noundef @.str.89) #11
  %5 = icmp eq i32 %4, 0
  br i1 %5, label %6, label %7

6:                                                ; preds = %1
  store i32 1, ptr @sig, align 4
  br label %52

7:                                                ; preds = %1
  %8 = load ptr, ptr %2, align 8
  %9 = call i32 @strcmp(ptr noundef %8, ptr noundef @.str.90) #11
  %10 = icmp eq i32 %9, 0
  br i1 %10, label %11, label %12

11:                                               ; preds = %7
  store i32 2, ptr @sig, align 4
  br label %51

12:                                               ; preds = %7
  %13 = load ptr, ptr %2, align 8
  %14 = call i32 @strcmp(ptr noundef %13, ptr noundef @.str.91) #11
  %15 = icmp eq i32 %14, 0
  br i1 %15, label %16, label %17

16:                                               ; preds = %12
  store i32 3, ptr @sig, align 4
  br label %50

17:                                               ; preds = %12
  %18 = load ptr, ptr %2, align 8
  %19 = call i32 @strcmp(ptr noundef %18, ptr noundef @.str.92) #11
  %20 = icmp eq i32 %19, 0
  br i1 %20, label %21, label %22

21:                                               ; preds = %17
  store i32 6, ptr @sig, align 4
  br label %49

22:                                               ; preds = %17
  %23 = load ptr, ptr %2, align 8
  %24 = call i32 @strcmp(ptr noundef %23, ptr noundef @.str.93) #11
  %25 = icmp eq i32 %24, 0
  br i1 %25, label %26, label %27

26:                                               ; preds = %22
  store i32 9, ptr @sig, align 4
  br label %48

27:                                               ; preds = %22
  %28 = load ptr, ptr %2, align 8
  %29 = call i32 @strcmp(ptr noundef %28, ptr noundef @.str.94) #11
  %30 = icmp eq i32 %29, 0
  br i1 %30, label %31, label %32

31:                                               ; preds = %27
  store i32 15, ptr @sig, align 4
  br label %47

32:                                               ; preds = %27
  %33 = load ptr, ptr %2, align 8
  %34 = call i32 @strcmp(ptr noundef %33, ptr noundef @.str.95) #11
  %35 = icmp eq i32 %34, 0
  br i1 %35, label %36, label %37

36:                                               ; preds = %32
  store i32 10, ptr @sig, align 4
  br label %46

37:                                               ; preds = %32
  %38 = load ptr, ptr %2, align 8
  %39 = call i32 @strcmp(ptr noundef %38, ptr noundef @.str.96) #11
  %40 = icmp eq i32 %39, 0
  br i1 %40, label %41, label %42

41:                                               ; preds = %37
  store i32 12, ptr @sig, align 4
  br label %45

42:                                               ; preds = %37
  %43 = load ptr, ptr @progname, align 8
  %44 = load ptr, ptr %2, align 8
  call void (ptr, ...) @write_stderr(ptr noundef @.str.97, ptr noundef %43, ptr noundef %44)
  call void @do_advice()
  call void @exit(i32 noundef 1) #12
  unreachable

45:                                               ; preds = %41
  br label %46

46:                                               ; preds = %45, %36
  br label %47

47:                                               ; preds = %46, %31
  br label %48

48:                                               ; preds = %47, %26
  br label %49

49:                                               ; preds = %48, %21
  br label %50

50:                                               ; preds = %49, %16
  br label %51

51:                                               ; preds = %50, %11
  br label %52

52:                                               ; preds = %51, %6
  ret void
}