; Function Attrs: nounwind uwtable
define internal fastcc void @set_sig(ptr noundef %0) unnamed_addr #5 {
  %2 = tail call i32 @strcmp(ptr noundef nonnull dereferenceable(1) %0, ptr noundef nonnull dereferenceable(4) @.str.89) #18
  %3 = icmp eq i32 %2, 0
  br i1 %3, label %27, label %4

4:                                                ; preds = %1
  %5 = tail call i32 @strcmp(ptr noundef nonnull dereferenceable(1) %0, ptr noundef nonnull dereferenceable(4) @.str.90) #18
  %6 = icmp eq i32 %5, 0
  br i1 %6, label %27, label %7

7:                                                ; preds = %4
  %8 = tail call i32 @strcmp(ptr noundef nonnull dereferenceable(1) %0, ptr noundef nonnull dereferenceable(5) @.str.91) #18
  %9 = icmp eq i32 %8, 0
  br i1 %9, label %27, label %10

10:                                               ; preds = %7
  %11 = tail call i32 @strcmp(ptr noundef nonnull dereferenceable(1) %0, ptr noundef nonnull dereferenceable(5) @.str.92) #18
  %12 = icmp eq i32 %11, 0
  br i1 %12, label %27, label %13

13:                                               ; preds = %10
  %14 = tail call i32 @strcmp(ptr noundef nonnull dereferenceable(1) %0, ptr noundef nonnull dereferenceable(5) @.str.93) #18
  %15 = icmp eq i32 %14, 0
  br i1 %15, label %27, label %16

16:                                               ; preds = %13
  %17 = tail call i32 @strcmp(ptr noundef nonnull dereferenceable(1) %0, ptr noundef nonnull dereferenceable(5) @.str.94) #18
  %18 = icmp eq i32 %17, 0
  br i1 %18, label %27, label %19

19:                                               ; preds = %16
  %20 = tail call i32 @strcmp(ptr noundef nonnull dereferenceable(1) %0, ptr noundef nonnull dereferenceable(5) @.str.95) #18
  %21 = icmp eq i32 %20, 0
  br i1 %21, label %27, label %22

22:                                               ; preds = %19
  %23 = tail call i32 @strcmp(ptr noundef nonnull dereferenceable(1) %0, ptr noundef nonnull dereferenceable(5) @.str.96) #18
  %24 = icmp eq i32 %23, 0
  br i1 %24, label %27, label %25

25:                                               ; preds = %22
  %26 = load ptr, ptr @progname, align 8
  tail call void (ptr, ...) @write_stderr(ptr noundef nonnull @.str.97, ptr noundef %26, ptr noundef nonnull %0)
  tail call fastcc void @do_advice()
  tail call void @exit(i32 noundef 1) #20
  unreachable

27:                                               ; preds = %22, %19, %16, %13, %10, %7, %4, %1
  %.sink = phi i32 [ 1, %1 ], [ 2, %4 ], [ 3, %7 ], [ 6, %10 ], [ 9, %13 ], [ 15, %16 ], [ 10, %19 ], [ 12, %22 ]
  store i32 %.sink, ptr @sig, align 4
  ret void
}